; Function Attrs: nounwind uwtable
define ptr @l_Array_foldlMUnsafe_fold___at_Lean_NameHashSet_filter___spec__4(ptr noundef readonly captures(none) %0, i64 noundef %1, i64 noundef %2, ptr noundef %3) local_unnamed_addr #2 {
  %.not41 = icmp eq i64 %1, %2
  br i1 %.not41, label %._crit_edge, label %.lr.ph

.lr.ph:                                           ; preds = %4
  %5 = getelementptr inbounds nuw i8, ptr %0, i64 24
  br label %6

6:                                                ; preds = %.lr.ph, %lean_dec.exit23.thread55
  %.01943 = phi i64 [ %1, %.lr.ph ], [ %58, %lean_dec.exit23.thread55 ]
  %.02142 = phi ptr [ %3, %.lr.ph ], [ %.0.i4953, %lean_dec.exit23.thread55 ]
  %7 = getelementptr inbounds nuw [0 x ptr], ptr %5, i64 0, i64 %.01943
  %8 = load ptr, ptr %7, align 8, !tbaa !9
  %9 = ptrtoint ptr %8 to i64
  %10 = and i64 %9, 1
  %.not.i29 = icmp eq i64 %10, 0
  br i1 %.not.i29, label %11, label %lean_array_uget.exit

11:                                               ; preds = %6
  %.val.i.i = load i32, ptr %8, align 4, !tbaa !4
  %12 = icmp sgt i32 %.val.i.i, 0
  br i1 %12, label %13, label %15, !prof !11

13:                                               ; preds = %11
  %14 = add nuw i32 %.val.i.i, 1
  store i32 %14, ptr %8, align 4, !tbaa !4
  br label %18

15:                                               ; preds = %11
  %.not.i.i = icmp eq i32 %.val.i.i, 0
  br i1 %.not.i.i, label %18, label %16

16:                                               ; preds = %15
  tail call void @lean_inc_ref_cold(ptr noundef nonnull %8) #6
  br label %18

lean_array_uget.exit:                             ; preds = %6
  %17 = tail call ptr @l_Std_DHashMap_Internal_AssocList_foldlM___at_Std_DHashMap_Internal_AssocList_length___spec__1___rarg(ptr noundef nonnull inttoptr (i64 1 to ptr), ptr noundef %8) #6
  br label %lean_dec.exit24

18:                                               ; preds = %13, %15, %16
  %19 = tail call ptr @l_Std_DHashMap_Internal_AssocList_foldlM___at_Std_DHashMap_Internal_AssocList_length___spec__1___rarg(ptr noundef nonnull inttoptr (i64 1 to ptr), ptr noundef nonnull %8) #6
  %20 = load i32, ptr %8, align 4, !tbaa !4
  %21 = icmp sgt i32 %20, 1
  br i1 %21, label %22, label %24, !prof !11

22:                                               ; preds = %18
  %23 = add nsw i32 %20, -1
  store i32 %23, ptr %8, align 4, !tbaa !4
  br label %lean_dec.exit24

24:                                               ; preds = %18
  %.not.i = icmp eq i32 %20, 0
  br i1 %.not.i, label %lean_dec.exit24, label %25

25:                                               ; preds = %24
  tail call void @lean_dec_ref_cold(ptr noundef nonnull %8) #6
  br label %lean_dec.exit24

lean_dec.exit24:                                  ; preds = %25, %24, %22, %lean_array_uget.exit
  %26 = phi ptr [ %17, %lean_array_uget.exit ], [ %19, %22 ], [ %19, %24 ], [ %19, %25 ]
  %27 = ptrtoint ptr %.02142 to i64
  %28 = and i64 %27, 1
  %.not38 = icmp eq i64 %28, 0
  %.pre46 = ptrtoint ptr %26 to i64
  %.pre = and i64 %.pre46, 1
  %29 = icmp eq i64 %.pre, 0
  br i1 %.not38, label %lean_nat_add.exit, label %30, !prof !17

30:                                               ; preds = %lean_dec.exit24
  br i1 %29, label %lean_nat_add.exit.thread50, label %32, !prof !17

lean_nat_add.exit.thread50:                       ; preds = %30
  %31 = tail call ptr @lean_nat_big_add(ptr noundef %.02142, ptr noundef %26) #6
  br label %44

32:                                               ; preds = %30
  %33 = lshr i64 %27, 1
  %34 = lshr i64 %.pre46, 1
  %35 = add nuw i64 %34, %33
  %36 = icmp sgt i64 %35, -1
  br i1 %36, label %37, label %41, !prof !11

37:                                               ; preds = %32
  %38 = shl nuw i64 %35, 1
  %39 = or disjoint i64 %38, 1
  %40 = inttoptr i64 %39 to ptr
  br label %lean_dec.exit23.thread55

41:                                               ; preds = %32
  %42 = tail call ptr @lean_big_usize_to_nat(i64 noundef %35) #6
  br label %lean_dec.exit23.thread55

lean_nat_add.exit:                                ; preds = %lean_dec.exit24
  %43 = tail call ptr @lean_nat_big_add(ptr noundef %.02142, ptr noundef %26) #6
  br i1 %29, label %44, label %lean_dec.exit23.thread

44:                                               ; preds = %lean_nat_add.exit.thread50, %lean_nat_add.exit
  %45 = phi ptr [ %31, %lean_nat_add.exit.thread50 ], [ %43, %lean_nat_add.exit ]
  %46 = load i32, ptr %26, align 4, !tbaa !4
  %47 = icmp sgt i32 %46, 1
  br i1 %47, label %48, label %50, !prof !11

48:                                               ; preds = %44
  %49 = add nsw i32 %46, -1
  store i32 %49, ptr %26, align 4, !tbaa !4
  br label %lean_dec.exit23

50:                                               ; preds = %44
  %.not.i25 = icmp eq i32 %46, 0
  br i1 %.not.i25, label %lean_dec.exit23, label %51

51:                                               ; preds = %50
  tail call void @lean_dec_ref_cold(ptr noundef nonnull %26) #6
  br label %lean_dec.exit23

lean_dec.exit23:                                  ; preds = %51, %50, %48
  br i1 %.not38, label %lean_dec.exit23.thread, label %lean_dec.exit23.thread55

lean_dec.exit23.thread:                           ; preds = %lean_nat_add.exit, %lean_dec.exit23
  %.0.i4954 = phi ptr [ %45, %lean_dec.exit23 ], [ %43, %lean_nat_add.exit ]
  %52 = load i32, ptr %.02142, align 4, !tbaa !4
  %53 = icmp sgt i32 %52, 1
  br i1 %53, label %54, label %56, !prof !11

54:                                               ; preds = %lean_dec.exit23.thread
  %55 = add nsw i32 %52, -1
  store i32 %55, ptr %.02142, align 4, !tbaa !4
  br label %lean_dec.exit23.thread55

56:                                               ; preds = %lean_dec.exit23.thread
  %.not.i27 = icmp eq i32 %52, 0
  br i1 %.not.i27, label %lean_dec.exit23.thread55, label %57

57:                                               ; preds = %56
  tail call void @lean_dec_ref_cold(ptr noundef nonnull %.02142) #6
  br label %lean_dec.exit23.thread55

lean_dec.exit23.thread55:                         ; preds = %41, %37, %lean_dec.exit23, %54, %56, %57
  %.0.i4953 = phi ptr [ %45, %lean_dec.exit23 ], [ %.0.i4954, %54 ], [ %.0.i4954, %56 ], [ %.0.i4954, %57 ], [ %40, %37 ], [ %42, %41 ]
  %58 = add i64 %.01943, 1
  %.not = icmp eq i64 %58, %2
  br i1 %.not, label %._crit_edge, label %6

._crit_edge:                                      ; preds = %lean_dec.exit23.thread55, %4
  %.021.lcssa = phi ptr [ %3, %4 ], [ %.0.i4953, %lean_dec.exit23.thread55 ]
  ret ptr %.021.lcssa
}